Certificate:
    Data:
        Version: 3 (0x2)
        Serial Number: 6 (0x6)
        Signature Algorithm: sha1WithRSAEncryption
        Issuer: C=CA, ST=British Columbia, L=Vancouver, O=Avigilon Corp., OU=Engineering-Internal, CN=Avigilon CA (ROOT)
        Validity
            Not Before: Feb 23 20:46:53 2007 GMT
            Not After : Feb 18 20:46:53 2027 GMT
        Subject: C=CA, ST=British Columbia, O=Avigilon Corp., OU=Engineering-Internal, CN=GeneralLicense
        Subject Public Key Info:
            Public Key Algorithm: rsaEncryption
            RSA Public Key: (1024 bit)
                Modulus (1024 bit):
                    00:a7:47:b3:95:83:4f:ef:50:04:bc:cf:dd:5c:83:
                    ac:ae:79:58:29:2b:6e:80:f3:b7:90:ee:c2:93:f7:
                    84:77:bf:59:ac:d8:1e:83:5b:41:53:2f:31:56:35:
                    46:3c:36:48:5c:69:d3:a7:da:3c:81:5e:2d:dd:c5:
                    47:55:53:8b:b9:1d:4a:23:4b:b0:e2:4e:3a:65:10:
                    d2:f6:86:36:ec:ed:9b:fb:3a:83:a4:c9:10:1c:08:
                    4c:b3:38:43:a8:da:5a:26:69:c6:f3:9c:2e:b1:9c:
                    89:82:62:aa:0f:0a:fe:a2:3b:4e:20:2e:aa:ca:e1:
                    15:84:9b:36:39:80:23:43:c5
                Exponent: 65537 (0x10001)
        X509v3 extensions:
            X509v3 Basic Constraints: 
                CA:FALSE
            Netscape Comment: 
                Certificate Generated By AvigilonCA
            X509v3 Subject Key Identifier: 
                F2:25:FB:11:FC:C3:0B:26:CF:40:6D:79:E4:34:96:44:BA:C3:41:48
            X509v3 Authority Key Identifier: 
                keyid:0B:8E:BA:0B:37:11:46:E1:A6:AB:9F:79:7C:52:83:CE:6E:9D:AA:2F

            X509v3 Subject Alternative Name: 
                DNS:*.*.*.*
    Signature Algorithm: sha1WithRSAEncryption
        3c:69:f3:fe:7b:07:e0:66:56:ee:0f:fa:0f:db:4e:79:48:4b:
        c2:03:e5:0f:ca:0d:bf:76:44:2f:9e:39:43:dc:de:7d:64:45:
        ac:c7:53:8f:92:75:65:11:d3:47:e9:ac:e0:c2:f7:c9:36:ef:
        87:cb:e6:63:66:94:16:5b:04:2a:fd:3f:a4:fa:21:60:d2:4a:
        9d:17:2c:aa:18:2e:30:d8:7a:22:26:79:bb:fe:4f:8d:26:6d:
        b6:cf:85:fe:10:ed:08:4f:b4:e2:ff:ca:30:9a:9d:36:ab:9b:
        4d:d7:c3:d2:51:df:75:9b:22:7b:da:71:2a:8c:b7:9b:bb:56:
        22:f4:ff:d5:48:ae:71:59:c0:e1:72:f3:af:73:2a:a0:e5:8f:
        41:82:0d:8e:1c:a6:7d:17:59:d2:d3:4a:37:06:07:ac:d2:17:
        32:65:a7:67:b5:96:f5:c4:bd:7e:54:ff:81:9a:ec:b1:e2:93:
        f7:02:e2:c8:72:eb:3f:a9:55:08:2d:ef:4e:bf:02:27:0c:06:
        96:72:ba:df:8c:83:00:0b:09:21:37:e1:36:1f:2d:12:2b:6a:
        38:7f:8c:3b:df:d9:2c:66:5f:a9:5a:0d:63:5b:44:47:29:89:
        e4:01:b1:6f:3d:04:ed:d5:31:8f:76:df:58:57:1b:f5:0e:89:
        fd:57:57:91
-----BEGIN CERTIFICATE-----
MIIDmTCCAoGgAwIBAgIBBjANBgkqhkiG9w0BAQUFADCBkTELMAkGA1UEBhMCQ0Ex
GTAXBgNVBAgTEEJyaXRpc2ggQ29sdW1iaWExEjAQBgNVBAcTCVZhbmNvdXZlcjEX
MBUGA1UEChMOQXZpZ2lsb24gQ29ycC4xHTAbBgNVBAsTFEVuZ2luZWVyaW5nLUlu
dGVybmFsMRswGQYDVQQDExJBdmlnaWxvbiBDQSAoUk9PVCkwHhcNMDcwMjIzMjA0
NjUzWhcNMjcwMjE4MjA0NjUzWjB5MQswCQYDVQQGEwJDQTEZMBcGA1UECBMQQnJp
dGlzaCBDb2x1bWJpYTEXMBUGA1UEChMOQXZpZ2lsb24gQ29ycC4xHTAbBgNVBAsT
FEVuZ2luZWVyaW5nLUludGVybmFsMRcwFQYDVQQDEw5HZW5lcmFsTGljZW5zZTCB
nzANBgkqhkiG9w0BAQEFAAOBjQAwgYkCgYEAp0ezlYNP71AEvM/dXIOsrnlYKStu
gPO3kO7Ck/eEd79ZrNgeg1tBUy8xVjVGPDZIXGnTp9o8gV4t3cVHVVOLuR1KI0uw
4k46ZRDS9oY27O2b+zqDpMkQHAhMszhDqNpaJmnG85wusZyJgmKqDwr+ojtOIC6q
yuEVhJs2OYAjQ8UCAwEAAaOBljCBkzAJBgNVHRMEAjAAMDIGCWCGSAGG+EIBDQQl
FiNDZXJ0aWZpY2F0ZSBHZW5lcmF0ZWQgQnkgQXZpZ2lsb25DQTAdBgNVHQ4EFgQU
8iX7EfzDCybPQG155DSWRLrDQUgwHwYDVR0jBBgwFoAUC466CzcRRuGmq595fFKD
zm6dqi8wEgYDVR0RBAswCYIHKi4qLiouKjANBgkqhkiG9w0BAQUFAAOCAQEAPGnz
/nsH4GZW7g/6D9tOeUhLwgPlD8oNv3ZEL545Q9zefWRFrMdTj5J1ZRHTR+ms4ML3
yTbvh8vmY2aUFlsEKv0/pPohYNJKnRcsqhguMNh6IiZ5u/5PjSZtts+F/hDtCE+0
4v/KMJqdNqubTdfD0lHfdZsie9pxKoy3m7tWIvT/1UiucVnA4XLzr3MqoOWPQYIN
jhymfRdZ0tNKNwYHrNIXMmWnZ7WW9cS9flT/gZrsseKT9wLiyHLrP6lVCC3vTr8C
JwwGlnK634yDAAsJITfhNh8tEitqOH+MO9/ZLGZfqVoNY1tERymJ5AGxbz0E7dUx
j3bfWFcb9Q6J/VdXkQ==
-----END CERTIFICATE-----
-----BEGIN RSA PRIVATE KEY-----
Proc-Type: 4,ENCRYPTED
DEK-Info: DES-EDE3-CBC,C9F292480BB901ED

Ri5q8POmPIgvSMyTBV9ftzqhNfD2u5V9Y9IZOxKboZ2bDg+4dZIyCfgUFP66Pewg
6YyDUHqKjlBoaUtGD+rcwF/sBhMV7TmwgoqvO0zSqm9a//fCaCnL4jaK/zKPbdo3
5HmmWYlII5WtkQvpZxPi4U/iZIlHvMpp1zy6In6T3J8Ri8ERhVMMsY/rAdNtmLeM
RVUWF/6Oi0YmlddZUWPoB92mf6sfyb7lvyodLelkMiJQk1h/5S38x8pT1g0ijwHW
yhuAICcjiPBCX75wGGEPW4Lkl1/xk+02Oq+ZIQb0puc2Cxv9GXXk6ZDOR5GcLDXM
0Ktfj8k8N8dq7rryePI9Z/0a7HmZ+1/n5zSchLXYSgdqsx7g31KUfR2HLRzyPuRG
uJfCjolF2qtSggyFs3qvLN86CFqgJhurMPvtJFaaWrWahwYIkHnmjlmZFfnoVdMC
9P8blOFWCDGdrb3ymf8TQk9vXZdvnmSi78wqm9W25yo7GWNuhpH1cqF5MX3JOrfK
XhV15rJhY6EmNYBv/+jX27xiNRnyk/2zgWy01KK+laRf/PxbtdDHR+OjN4ABwQJm
j2GzxU+LUFC9wUvu/FVgBbdHBYw38Ri7Hz49F4cJnTd83fQzMgvO7vw8JTt6IsbW
EXSHwDdcxxUw+Ipz5aF61RqgK6BUqgxMZkiv/O8/P3Ih3/56j26kbm89cbee1TbP
f3JJizn3JpqMUIaLhzmi1SIK3TMjut0/HTJDeYpYytDOo7ZRuTlT/JTk68I5CYAc
/grV4C8/kJ3wb53g8l7wGc/wGjSypzx3UJ0PtZCrqyFn301GkaUtqg==
-----END RSA PRIVATE KEY-----
-----BEGIN CERTIFICATE-----
MIIEszCCA5ugAwIBAgIBADANBgkqhkiG9w0BAQUFADCBkTELMAkGA1UEBhMCQ0Ex
GTAXBgNVBAgTEEJyaXRpc2ggQ29sdW1iaWExEjAQBgNVBAcTCVZhbmNvdXZlcjEX
MBUGA1UEChMOQXZpZ2lsb24gQ29ycC4xHTAbBgNVBAsTFEVuZ2luZWVyaW5nLUlu
dGVybmFsMRswGQYDVQQDExJBdmlnaWxvbiBDQSAoUk9PVCkwHhcNMDcwMjE3MDEw
MzMwWhcNMjcwMjEyMDEwMzMwWjCBkTELMAkGA1UEBhMCQ0ExGTAXBgNVBAgTEEJy
aXRpc2ggQ29sdW1iaWExEjAQBgNVBAcTCVZhbmNvdXZlcjEXMBUGA1UEChMOQXZp
Z2lsb24gQ29ycC4xHTAbBgNVBAsTFEVuZ2luZWVyaW5nLUludGVybmFsMRswGQYD
VQQDExJBdmlnaWxvbiBDQSAoUk9PVCkwggEiMA0GCSqGSIb3DQEBAQUAA4IBDwAw
ggEKAoIBAQCl1mE+kjpHWa3rjCyTa4Q1B+xMVJbcwXZjqg6Gy5YNTKKlfYGLB/IW
cKF6AOGccChZg4W0yceeJ8cHlvwugTVl2i1ka4uaZ03/idEIeqOIml9Pl9gF0rkc
NzuRMpHJT5SVFuYxBJPOdhkpJzceNQOXHVlTX1inF0J82lw78kK9Cy7f3JaAxC7T
Ukx2qbqgFfmtZTS8NOY8dHckAqpjzSVUaQ3QVsjm8huycEXliVcsGZgZUqRyXTk+
9XA2SB2leZ9RlzNDvubI+SckWW2LHieXJhnk7cJrGeIHNK6oF6eGdEo0ANiK+Nuk
RxM9YIPL72EtXypR1Uwp+4LGoW1cSqqvAgMBAAGjggESMIIBDjAdBgNVHQ4EFgQU
C466CzcRRuGmq595fFKDzm6dqi8wgb4GA1UdIwSBtjCBs4AUC466CzcRRuGmq595
fFKDzm6dqi+hgZekgZQwgZExCzAJBgNVBAYTAkNBMRkwFwYDVQQIExBCcml0aXNo
IENvbHVtYmlhMRIwEAYDVQQHEwlWYW5jb3V2ZXIxFzAVBgNVBAoTDkF2aWdpbG9u
IENvcnAuMR0wGwYDVQQLExRFbmdpbmVlcmluZy1JbnRlcm5hbDEbMBkGA1UEAxMS
QXZpZ2lsb24gQ0EgKFJPT1QpggEAMAwGA1UdEwQFMAMBAf8wCwYDVR0PBAQDAgEG
MBEGCWCGSAGG+EIBAQQEAwIBBjANBgkqhkiG9w0BAQUFAAOCAQEAQMnxWg6J+TvN
Sdk+oY/qFeERPlqUVAGpIpajnhHtRA/uD20q65V/DIW88v9mwGvKi9/VEI2IICqR
8+NOAL80hJZnchdUrI0AhfU44sDor4fCy7/WDnjXsDpLS0G2/9/CWhuzokRtCIug
PJ3r+96tng/HUdWS1ecV4iz5TxDZxtuixnxDw7FumkiP9DTgdC35yvPpZXpiHRR3
FLzDvxghZYnSevU01SBnYjPc4a+d3RnbalS3b/kvuV8/rlYdF08N16MBVKM7Hx/j
kgUCV5zeS/AmMOsDm9EMpejUEnX+tanUK8LWj/rzCcL0I47OnuiH6bQLfsPOGu47
0ZZZCHo10Q==
-----END CERTIFICATE-----
